target datalayout = "e-m:e-p270:32:32-p271:32:32-p272:64:64-i64:64-i128:128-f80:128-n8:16:32:64-S128"
target triple = "x86_64-pc-linux-gnu"

%struct.mi_option_desc_s = type { i64, i32, i32, ptr, ptr }

; Function Attrs: nounwind uwtable
define hidden void @mi_option_set_default(i32 noundef %0, i64 noundef %1) #0 {
  %3 = alloca i32, align 4
  %4 = alloca i64, align 8
  %5 = alloca ptr, align 8
  store i32 %0, ptr %3, align 4, !tbaa !3
  store i64 %1, ptr %4, align 8, !tbaa !7
  %6 = load i32, ptr %3, align 4, !tbaa !3
  %7 = icmp ult i32 %6, 0
  br i1 %7, label %11, label %8

8:                                                ; preds = %2
  %9 = load i32, ptr %3, align 4, !tbaa !3
  %10 = icmp uge i32 %9, 36
  br i1 %10, label %11, label %12

11:                                               ; preds = %8, %2
  br label %25

12:                                               ; preds = %8
  call void @llvm.lifetime.start.p0(i64 8, ptr %5) #12
  %13 = load i32, ptr %3, align 4, !tbaa !3
  %14 = zext i32 %13 to i64
  %15 = getelementptr inbounds nuw [36 x %struct.mi_option_desc_s], ptr @options, i64 0, i64 %14
  store ptr %15, ptr %5, align 8, !tbaa !9
  %16 = load ptr, ptr %5, align 8, !tbaa !9
  %17 = getelementptr inbounds nuw %struct.mi_option_desc_s, ptr %16, i32 0, i32 1
  %18 = load i32, ptr %17, align 8, !tbaa !19
  %19 = icmp ne i32 %18, 2
  br i1 %19, label %20, label %24

20:                                               ; preds = %12
  %21 = load i64, ptr %4, align 8, !tbaa !7
  %22 = load ptr, ptr %5, align 8, !tbaa !9
  %23 = getelementptr inbounds nuw %struct.mi_option_desc_s, ptr %22, i32 0, i32 0
  store i64 %21, ptr %23, align 8, !tbaa !15
  br label %24

24:                                               ; preds = %20, %12
  call void @llvm.lifetime.end.p0(i64 8, ptr %5) #12
  br label %25

25:                                               ; preds = %24, %11
  ret void
}