; Function Attrs: mustprogress nofree norecurse nosync nounwind willreturn memory(readwrite, argmem: none, inaccessiblemem: none) uwtable
define hidden void @mi_option_set_default(i32 noundef %0, i64 noundef %1) local_unnamed_addr #5 {
  %3 = icmp ugt i32 %0, 35
  br i1 %3, label %10, label %4

4:                                                ; preds = %2
  %5 = zext nneg i32 %0 to i64
  %6 = getelementptr inbounds nuw [36 x %struct.mi_option_desc_s], ptr @options, i64 0, i64 %5
  %7 = getelementptr inbounds nuw i8, ptr %6, i64 8
  %8 = load i32, ptr %7, align 8, !tbaa !8
  %.not = icmp eq i32 %8, 2
  br i1 %.not, label %10, label %9

9:                                                ; preds = %4
  store i64 %1, ptr %6, align 16, !tbaa !14
  br label %10

10:                                               ; preds = %4, %9, %2
  ret void
}